target datalayout = "e-m:e-p270:32:32-p271:32:32-p272:64:64-i64:64-i128:128-f80:128-n8:16:32:64-S128"
target triple = "x86_64-pc-linux-gnu"

%"struct.Gluco2::Lit" = type { i32 }
%"struct.Gluco2::SimpSolver::ClauseDeleted" = type { ptr }
%"struct.Gluco2::SimpSolver::ElimLt" = type { ptr }
%"class.Gluco2::vec.0" = type { ptr, i32, i32 }
%"class.Gluco2::SimpSolver" = type <{ %"class.Gluco2::Solver", i32, i32, i32, i32, double, i8, i8, i8, i8, i32, i32, i32, i32, i32, i8, [7 x i8], %"class.Gluco2::vec.5", %"class.Gluco2::vec.4", %"class.Gluco2::OccLists.9", %"class.Gluco2::vec", %"class.Gluco2::Heap.11", %"class.Gluco2::Queue", %"class.Gluco2::vec.4", %"class.Gluco2::vec.4", i32, i32, i32, [4 x i8] }>
%"class.Gluco2::Solver" = type { ptr, i32, ptr, ptr, i32, i8, ptr, i64, %"class.Gluco2::vec", %"class.Gluco2::vec.0", i32, %"class.Gluco2::vec.1", %"class.Gluco2::vec.0", i32, i32, i32, double, double, double, double, i32, i32, i32, i32, i32, i32, double, double, double, double, i32, i32, i8, i8, double, ptr, i8, i64, i64, i64, i64, i64, i64, i64, i64, i64, i64, i64, i64, i64, i64, i64, i64, i64, i64, i64, i64, i64, i64, i32, i8, double, %"class.Gluco2::vec.2", double, %"class.Gluco2::OccLists", %"class.Gluco2::OccLists", %"class.Gluco2::vec.5", %"class.Gluco2::vec.5", %"class.Gluco2::vec.1", %"class.Gluco2::vec.4", %"class.Gluco2::vec.4", %"class.Gluco2::vec.0", %"class.Gluco2::vec", %"class.Gluco2::vec", %"class.Gluco2::vec.6", i32, i32, i64, %"class.Gluco2::vec.0", %"class.Gluco2::Heap", double, i8, %"class.Gluco2::vec.5", %"class.Gluco2::vec.0", %"class.Gluco2::ClauseAllocator", i32, %"class.Gluco2::bqueue", %"class.Gluco2::bqueue", float, i32, %"class.Gluco2::vec.4", %"class.Gluco2::vec.0", %"class.Gluco2::vec.0", %"class.Gluco2::vec.0", i32, double, double, i32, i64, i64, i8, i32, i32, double, double, i32, i32, %"class.Gluco2::vec", %"class.Gluco2::vec", i8, %"class.Gluco2::vec.7", %"class.Gluco2::vec.5", %"class.Gluco2::vec.0", %"class.Gluco2::vec.0", i32, i32, i32, i32, %"class.Gluco2::Heap2", %"class.Gluco2::vec", %"class.Gluco2::vec", i32, %"class.Gluco2::vec", %"class.Gluco2::vec.0" }
%"class.Gluco2::vec.2" = type { ptr, i32, i32 }
%"class.Gluco2::OccLists" = type { %"class.Gluco2::vec.3", %"class.Gluco2::vec.4", %"class.Gluco2::vec.0", %"struct.Gluco2::Solver::WatcherDeleted" }
%"class.Gluco2::vec.3" = type { ptr, i32, i32 }
%"struct.Gluco2::Solver::WatcherDeleted" = type { ptr }
%"class.Gluco2::vec.1" = type { ptr, i32, i32 }
%"class.Gluco2::vec.6" = type { ptr, i32, i32 }
%"class.Gluco2::Heap" = type { %"struct.Gluco2::Solver::VarOrderLt", %"class.Gluco2::vec", %"class.Gluco2::vec" }
%"struct.Gluco2::Solver::VarOrderLt" = type { ptr }
%"class.Gluco2::ClauseAllocator" = type { %"class.Gluco2::RegionAllocator.base", i8, [3 x i8] }
%"class.Gluco2::RegionAllocator.base" = type <{ ptr, i32, i32, i32 }>
%"class.Gluco2::bqueue" = type { %"class.Gluco2::vec.5", i32, i32, i64, i32, i32, i8, double, double }
%"class.Gluco2::vec.7" = type { ptr, i32, i32 }
%"class.Gluco2::Heap2" = type { %"struct.Gluco2::Solver::JustOrderLt2", %"class.Gluco2::vec.8", %"class.Gluco2::vec" }
%"struct.Gluco2::Solver::JustOrderLt2" = type { ptr }
%"class.Gluco2::vec.8" = type { ptr, i32, i32 }
%"class.Gluco2::vec.5" = type { ptr, i32, i32 }
%"class.Gluco2::OccLists.9" = type { %"class.Gluco2::vec.10", %"class.Gluco2::vec.4", %"class.Gluco2::vec", %"struct.Gluco2::SimpSolver::ClauseDeleted" }
%"class.Gluco2::vec.10" = type { ptr, i32, i32 }
%"class.Gluco2::vec" = type { ptr, i32, i32 }
%"class.Gluco2::Heap.11" = type { %"struct.Gluco2::SimpSolver::ElimLt", %"class.Gluco2::vec", %"class.Gluco2::vec" }
%"class.Gluco2::Queue" = type { %"class.Gluco2::vec.5", i32, i32 }
%"class.Gluco2::vec.4" = type { ptr, i32, i32 }
%"class.Gluco2::Clause" = type { %struct.anon, [0 x %union.anon] }
%struct.anon = type { [12 x i8] }
%union.anon = type { %"struct.Gluco2::Lit" }

; Function Attrs: mustprogress nounwind uwtable
define linkonce_odr noundef zeroext i1 @_ZNK6Gluco23LiteqES0_(ptr noundef nonnull align 4 dereferenceable(4) %0, i32 %1) #2 comdat align 2 {
  %3 = alloca %"struct.Gluco2::Lit", align 4
  %4 = alloca ptr, align 8
  %5 = getelementptr inbounds %"struct.Gluco2::Lit", ptr %3, i32 0, i32 0
  store i32 %1, ptr %5, align 4
  store ptr %0, ptr %4, align 8
  %6 = load ptr, ptr %4, align 8
  %7 = getelementptr inbounds %"struct.Gluco2::Lit", ptr %6, i32 0, i32 0
  %8 = load i32, ptr %7, align 4
  %9 = getelementptr inbounds %"struct.Gluco2::Lit", ptr %3, i32 0, i32 0
  %10 = load i32, ptr %9, align 4
  %11 = icmp eq i32 %8, %10
  ret i1 %11
}

; Function Attrs: mustprogress nounwind uwtable
define linkonce_odr i32 @_ZN6Gluco2coENS_3LitE(i32 %0) #2 comdat {
  %2 = alloca %"struct.Gluco2::Lit", align 4
  %3 = alloca %"struct.Gluco2::Lit", align 4
  %4 = getelementptr inbounds %"struct.Gluco2::Lit", ptr %3, i32 0, i32 0
  store i32 %0, ptr %4, align 4
  %5 = getelementptr inbounds %"struct.Gluco2::Lit", ptr %3, i32 0, i32 0
  %6 = load i32, ptr %5, align 4
  %7 = xor i32 %6, 1
  %8 = getelementptr inbounds %"struct.Gluco2::Lit", ptr %2, i32 0, i32 0
  store i32 %7, ptr %8, align 4
  %9 = getelementptr inbounds %"struct.Gluco2::Lit", ptr %2, i32 0, i32 0
  %10 = load i32, ptr %9, align 4
  ret i32 %10
}

; Function Attrs: mustprogress nounwind uwtable
define linkonce_odr noundef i32 @_ZN6Gluco23varENS_3LitE(i32 %0) #2 comdat {
  %2 = alloca %"struct.Gluco2::Lit", align 4
  %3 = getelementptr inbounds %"struct.Gluco2::Lit", ptr %2, i32 0, i32 0
  store i32 %0, ptr %3, align 4
  %4 = getelementptr inbounds %"struct.Gluco2::Lit", ptr %2, i32 0, i32 0
  %5 = load i32, ptr %4, align 4
  %6 = ashr i32 %5, 1
  ret i32 %6
}

; Function Attrs: mustprogress nounwind uwtable
define linkonce_odr noundef ptr @_ZNK6Gluco26ClausecvPKNS_3LitEEv(ptr noundef nonnull align 4 dereferenceable(12) %0) #2 comdat align 2 {
  %2 = alloca ptr, align 8
  store ptr %0, ptr %2, align 8
  %3 = load ptr, ptr %2, align 8
  %4 = getelementptr inbounds %"class.Gluco2::Clause", ptr %3, i32 0, i32 1
  %5 = getelementptr inbounds [0 x %union.anon], ptr %4, i64 0, i64 0
  ret ptr %5
}

; Function Attrs: mustprogress nounwind uwtable
define linkonce_odr noundef i32 @_ZNK6Gluco26Clause4sizeEv(ptr noundef nonnull align 4 dereferenceable(12) %0) #2 comdat align 2 {
  %2 = alloca ptr, align 8
  store ptr %0, ptr %2, align 8
  %3 = load ptr, ptr %2, align 8
  %4 = getelementptr inbounds %"class.Gluco2::Clause", ptr %3, i32 0, i32 0
  %5 = load i96, ptr %4, align 4
  %6 = lshr i96 %5, 32
  %7 = and i96 %6, 4294967295
  %8 = trunc i96 %7 to i32
  ret i32 %8
}

; Function Attrs: mustprogress uwtable
define noundef zeroext i1 @_ZN6Gluco210SimpSolver5mergeERKNS_6ClauseES3_iRi(ptr noundef nonnull align 8 dereferenceable(1684) %0, ptr noundef nonnull align 4 dereferenceable(12) %1, ptr noundef nonnull align 4 dereferenceable(12) %2, i32 noundef %3, ptr noundef nonnull align 4 dereferenceable(4) %4) #1 align 2 {
  %6 = alloca i1, align 1
  %7 = alloca ptr, align 8
  %8 = alloca ptr, align 8
  %9 = alloca ptr, align 8
  %10 = alloca i32, align 4
  %11 = alloca ptr, align 8
  %12 = alloca i8, align 1
  %13 = alloca ptr, align 8
  %14 = alloca ptr, align 8
  %15 = alloca ptr, align 8
  %16 = alloca ptr, align 8
  %17 = alloca i32, align 4
  %18 = alloca %"struct.Gluco2::Lit", align 4
  %19 = alloca i32, align 4
  %20 = alloca %"struct.Gluco2::Lit", align 4
  %21 = alloca %"struct.Gluco2::Lit", align 4
  %22 = alloca %"struct.Gluco2::Lit", align 4
  %23 = alloca %"struct.Gluco2::Lit", align 4
  store ptr %0, ptr %7, align 8
  store ptr %1, ptr %8, align 8
  store ptr %2, ptr %9, align 8
  store i32 %3, ptr %10, align 4
  store ptr %4, ptr %11, align 8
  %24 = load ptr, ptr %7, align 8
  %25 = getelementptr inbounds %"class.Gluco2::SimpSolver", ptr %24, i32 0, i32 10
  %26 = load i32, ptr %25, align 4
  %27 = add nsw i32 %26, 1
  store i32 %27, ptr %25, align 4
  %28 = load ptr, ptr %8, align 8
  %29 = call noundef i32 @_ZNK6Gluco26Clause4sizeEv(ptr noundef nonnull align 4 dereferenceable(12) %28)
  %30 = load ptr, ptr %9, align 8
  %31 = call noundef i32 @_ZNK6Gluco26Clause4sizeEv(ptr noundef nonnull align 4 dereferenceable(12) %30)
  %32 = icmp slt i32 %29, %31
  %33 = zext i1 %32 to i8
  store i8 %33, ptr %12, align 1
  %34 = load i8, ptr %12, align 1
  %35 = trunc i8 %34 to i1
  br i1 %35, label %36, label %38

36:                                               ; preds = %5
  %37 = load ptr, ptr %9, align 8
  br label %40

38:                                               ; preds = %5
  %39 = load ptr, ptr %8, align 8
  br label %40

40:                                               ; preds = %38, %36
  %41 = phi ptr [ %37, %36 ], [ %39, %38 ]
  store ptr %41, ptr %13, align 8
  %42 = load i8, ptr %12, align 1
  %43 = trunc i8 %42 to i1
  br i1 %43, label %44, label %46

44:                                               ; preds = %40
  %45 = load ptr, ptr %8, align 8
  br label %48

46:                                               ; preds = %40
  %47 = load ptr, ptr %9, align 8
  br label %48

48:                                               ; preds = %46, %44
  %49 = phi ptr [ %45, %44 ], [ %47, %46 ]
  store ptr %49, ptr %14, align 8
  %50 = load ptr, ptr %13, align 8
  %51 = call noundef ptr @_ZNK6Gluco26ClausecvPKNS_3LitEEv(ptr noundef nonnull align 4 dereferenceable(12) %50)
  store ptr %51, ptr %15, align 8
  %52 = load ptr, ptr %14, align 8
  %53 = call noundef ptr @_ZNK6Gluco26ClausecvPKNS_3LitEEv(ptr noundef nonnull align 4 dereferenceable(12) %52)
  store ptr %53, ptr %16, align 8
  %54 = load ptr, ptr %13, align 8
  %55 = call noundef i32 @_ZNK6Gluco26Clause4sizeEv(ptr noundef nonnull align 4 dereferenceable(12) %54)
  %56 = sub nsw i32 %55, 1
  %57 = load ptr, ptr %11, align 8
  store i32 %56, ptr %57, align 4
  store i32 0, ptr %17, align 4
  br label %58

58:                                               ; preds = %123, %48
  %59 = load i32, ptr %17, align 4
  %60 = load ptr, ptr %14, align 8
  %61 = call noundef i32 @_ZNK6Gluco26Clause4sizeEv(ptr noundef nonnull align 4 dereferenceable(12) %60)
  %62 = icmp slt i32 %59, %61
  br i1 %62, label %63, label %126

63:                                               ; preds = %58
  %64 = load ptr, ptr %16, align 8
  %65 = load i32, ptr %17, align 4
  %66 = sext i32 %65 to i64
  %67 = getelementptr inbounds %"struct.Gluco2::Lit", ptr %64, i64 %66
  call void @llvm.memcpy.p0.p0.i64(ptr align 4 %18, ptr align 4 %67, i64 4, i1 false)
  %68 = getelementptr inbounds %"struct.Gluco2::Lit", ptr %18, i32 0, i32 0
  %69 = load i32, ptr %68, align 4
  %70 = call noundef i32 @_ZN6Gluco23varENS_3LitE(i32 %69)
  %71 = load i32, ptr %10, align 4
  %72 = icmp ne i32 %70, %71
  br i1 %72, label %73, label %121

73:                                               ; preds = %63
  store i32 0, ptr %19, align 4
  br label %74

74:                                               ; preds = %114, %73
  %75 = load i32, ptr %19, align 4
  %76 = load ptr, ptr %13, align 8
  %77 = call noundef i32 @_ZNK6Gluco26Clause4sizeEv(ptr noundef nonnull align 4 dereferenceable(12) %76)
  %78 = icmp slt i32 %75, %77
  br i1 %78, label %79, label %117

79:                                               ; preds = %74
  %80 = load ptr, ptr %15, align 8
  %81 = load i32, ptr %19, align 4
  %82 = sext i32 %81 to i64
  %83 = getelementptr inbounds %"struct.Gluco2::Lit", ptr %80, i64 %82
  call void @llvm.memcpy.p0.p0.i64(ptr align 4 %20, ptr align 4 %83, i64 4, i1 false)
  %84 = getelementptr inbounds %"struct.Gluco2::Lit", ptr %20, i32 0, i32 0
  %85 = load i32, ptr %84, align 4
  %86 = call noundef i32 @_ZN6Gluco23varENS_3LitE(i32 %85)
  %87 = load ptr, ptr %16, align 8
  %88 = load i32, ptr %17, align 4
  %89 = sext i32 %88 to i64
  %90 = getelementptr inbounds %"struct.Gluco2::Lit", ptr %87, i64 %89
  call void @llvm.memcpy.p0.p0.i64(ptr align 4 %21, ptr align 4 %90, i64 4, i1 false)
  %91 = getelementptr inbounds %"struct.Gluco2::Lit", ptr %21, i32 0, i32 0
  %92 = load i32, ptr %91, align 4
  %93 = call noundef i32 @_ZN6Gluco23varENS_3LitE(i32 %92)
  %94 = icmp eq i32 %86, %93
  br i1 %94, label %95, label %113

95:                                               ; preds = %79
  %96 = load ptr, ptr %15, align 8
  %97 = load i32, ptr %19, align 4
  %98 = sext i32 %97 to i64
  %99 = getelementptr inbounds %"struct.Gluco2::Lit", ptr %96, i64 %98
  %100 = load ptr, ptr %16, align 8
  %101 = load i32, ptr %17, align 4
  %102 = sext i32 %101 to i64
  %103 = getelementptr inbounds %"struct.Gluco2::Lit", ptr %100, i64 %102
  call void @llvm.memcpy.p0.p0.i64(ptr align 4 %23, ptr align 4 %103, i64 4, i1 false)
  %104 = getelementptr inbounds %"struct.Gluco2::Lit", ptr %23, i32 0, i32 0
  %105 = load i32, ptr %104, align 4
  %106 = call i32 @_ZN6Gluco2coENS_3LitE(i32 %105)
  %107 = getelementptr inbounds %"struct.Gluco2::Lit", ptr %22, i32 0, i32 0
  store i32 %106, ptr %107, align 4
  %108 = getelementptr inbounds %"struct.Gluco2::Lit", ptr %22, i32 0, i32 0
  %109 = load i32, ptr %108, align 4
  %110 = call noundef zeroext i1 @_ZNK6Gluco23LiteqES0_(ptr noundef nonnull align 4 dereferenceable(4) %99, i32 %109)
  br i1 %110, label %111, label %112

111:                                              ; preds = %95
  store i1 false, ptr %6, align 1
  br label %127

112:                                              ; preds = %95
  br label %122

113:                                              ; preds = %79
  br label %114

114:                                              ; preds = %113
  %115 = load i32, ptr %19, align 4
  %116 = add nsw i32 %115, 1
  store i32 %116, ptr %19, align 4
  br label %74, !llvm.loop !25

117:                                              ; preds = %74
  %118 = load ptr, ptr %11, align 8
  %119 = load i32, ptr %118, align 4
  %120 = add nsw i32 %119, 1
  store i32 %120, ptr %118, align 4
  br label %121

121:                                              ; preds = %117, %63
  br label %122

122:                                              ; preds = %121, %112
  br label %123

123:                                              ; preds = %122
  %124 = load i32, ptr %17, align 4
  %125 = add nsw i32 %124, 1
  store i32 %125, ptr %17, align 4
  br label %58, !llvm.loop !26

126:                                              ; preds = %58
  store i1 true, ptr %6, align 1
  br label %127

127:                                              ; preds = %126, %111
  %128 = load i1, ptr %6, align 1
  ret i1 %128
}